ccollections
defaultdict
p0
(c__builtin__
list
p1
tp2
Rp3
(I0
I1
tp4
(lp5
(I1
(I0
I0
tp6
tp7
a(I3
(I1
I1
tp8
tp9
as(I1
I0
tp10
(lp11
(I2
g6
tp12
a(I4
g8
tp13
asg6
(lp14
(I1
g4
tp15
a(I2
g10
tp16
asg8
(lp17
(I3
g4
tp18
a(I4
g10
tp19
as.