ccollections
defaultdict
p0
(c__builtin__
list
p1
tp2
Rp3
(I0
I1
tp4
(lp5
(I1
(I0
I0
tp6
tp7
a(I3
(I0
I2
tp8
tp9
a(I4
(I1
I1
tp10
tp11
as(I1
I2
tp12
(lp13
(I7
g8
tp14
a(I8
g10
tp15
a(I11
(I2
I2
tp16
tp17
asg6
(lp18
(I1
g4
tp19
a(I2
(I1
I0
tp20
tp21
as(I2
I1
tp22
(lp23
(I9
g10
tp24
a(I10
(I2
I0
tp25
tp26
a(I12
g16
tp27
asg10
(lp28
(I4
g4
tp29
a(I5
g20
tp30
a(I8
g12
tp31
a(I9
g22
tp32
asg25
(lp33
(I6
g20
tp34
a(I10
g22
tp35
asg16
(lp36
(I11
g12
tp37
a(I12
g22
tp38
asg20
(lp39
(I2
g6
tp40
a(I5
g10
tp41
a(I6
g25
tp42
asg8
(lp43
(I3
g4
tp44
a(I7
g12
tp45
as.