ccollections
defaultdict
p0
(c__builtin__
list
p1
tp2
Rp3
(I0
I1
tp4
(lp5
(I1
(I0
I0
tp6
tp7
a(I3
(I1
I1
tp8
tp9
asg6
(lp10
(I1
g4
tp11
a(I2
(I1
I0
tp12
tp13
as(I2
I1
tp14
(lp15
(I6
g8
tp16
a(I7
(I2
I0
tp17
tp18
asg17
(lp19
(I5
g12
tp20
a(I7
g14
tp21
asg12
(lp22
(I2
g6
tp23
a(I4
g8
tp24
a(I5
g17
tp25
asg8
(lp26
(I3
g4
tp27
a(I4
g12
tp28
a(I6
g14
tp29
as.