ccollections
defaultdict
p0
(c__builtin__
list
p1
tp2
Rp3
(I0
I1
tp4
(lp5
(I1
(I0
I0
tp6
tp7
a(I3
(I0
I2
tp8
tp9
a(I4
(I1
I1
tp10
tp11
as(I1
I2
tp12
(lp13
(I8
g8
tp14
a(I9
g10
tp15
a(I13
(I1
I3
tp16
tp17
a(I14
(I2
I2
tp18
tp19
asg6
(lp20
(I1
g4
tp21
a(I2
(I1
I0
tp22
tp23
as(I0
I3
tp24
(lp25
(I7
g8
tp26
a(I12
g16
tp27
asg10
(lp28
(I4
g4
tp29
a(I5
g22
tp30
a(I9
g12
tp31
a(I10
(I2
I1
tp32
tp33
as(I2
I0
tp34
(lp35
(I6
g22
tp36
a(I11
g32
tp37
asg16
(lp38
(I12
g24
tp39
a(I13
g12
tp40
a(I16
(I2
I3
tp41
tp42
asg41
(lp43
(I16
g16
tp44
a(I17
g18
tp45
asg32
(lp46
(I10
g10
tp47
a(I11
g34
tp48
a(I15
g18
tp49
asg18
(lp50
(I14
g12
tp51
a(I15
g32
tp52
a(I17
g41
tp53
asg22
(lp54
(I2
g6
tp55
a(I5
g10
tp56
a(I6
g34
tp57
asg8
(lp58
(I3
g4
tp59
a(I7
g24
tp60
a(I8
g12
tp61
as.